target datalayout = "e-m:e-p270:32:32-p271:32:32-p272:64:64-i64:64-i128:128-f80:128-n8:16:32:64-S128"
target triple = "x86_64-pc-linux-gnu"

%struct._packet_info = type { ptr, ptr, i32, i32, %struct.nstime_t, %struct.nstime_t, %struct.nstime_t, i8, ptr, ptr, ptr, ptr, %struct._address, %struct._address, %struct._address, %struct._address, %struct._address, %struct._address, i32, ptr, i8, [3 x i8], %struct.anon, i32, i32, i32, i32, ptr, i8, ptr, ptr, i16, i16, i32, i32, i16, i32, i32, ptr, ptr, ptr, i8, i8, i16, i16, i16, i32, i16, i16, ptr, ptr, ptr, ptr, ptr, i32, i32 }
%struct.nstime_t = type { i64, i32 }
%struct._address = type { i32, i32, ptr, ptr }
%struct.anon = type { i8, [3 x i8] }
%struct.wscbor_chunk_t = type { ptr, i32, i32, i32, ptr, ptr, i32, i8, i64 }

@bpv6_handle = internal global ptr null, align 8
@bpv7_handle = internal global ptr null, align 8

; Function Attrs: null_pointer_is_valid sspstrong uwtable
define internal i32 @dissect_bundle(ptr noundef %0, ptr noundef %1, ptr noundef %2, ptr noundef %3) #0 {
  %5 = alloca i32, align 4
  %6 = alloca ptr, align 8
  %7 = alloca ptr, align 8
  %8 = alloca ptr, align 8
  %9 = alloca ptr, align 8
  %10 = alloca i32, align 4
  %11 = alloca i8, align 1
  %12 = alloca i32, align 4
  %13 = alloca ptr, align 8
  %14 = alloca ptr, align 8
  %15 = alloca ptr, align 8
  %16 = alloca i64, align 8
  store ptr %0, ptr %6, align 8
  store ptr %1, ptr %7, align 8
  store ptr %2, ptr %8, align 8
  store ptr %3, ptr %9, align 8
  call void @llvm.lifetime.start.p0(i64 4, ptr %10) #7
  store i32 0, ptr %10, align 4
  call void @llvm.lifetime.start.p0(i64 1, ptr %11) #7
  %17 = load ptr, ptr %6, align 8
  %18 = load i32, ptr %10, align 4
  %19 = call zeroext i8 @tvb_get_uint8(ptr noundef %17, i32 noundef %18)
  store i8 %19, ptr %11, align 1
  %20 = load i8, ptr %11, align 1
  %21 = zext i8 %20 to i32
  %22 = icmp eq i32 %21, 4
  br i1 %22, label %31, label %23

23:                                               ; preds = %4
  %24 = load i8, ptr %11, align 1
  %25 = zext i8 %24 to i32
  %26 = icmp eq i32 %25, 5
  br i1 %26, label %31, label %27

27:                                               ; preds = %23
  %28 = load i8, ptr %11, align 1
  %29 = zext i8 %28 to i32
  %30 = icmp eq i32 %29, 6
  br i1 %30, label %31, label %37

31:                                               ; preds = %27, %23, %4
  %32 = load ptr, ptr @bpv6_handle, align 8
  %33 = load ptr, ptr %6, align 8
  %34 = load ptr, ptr %7, align 8
  %35 = load ptr, ptr %8, align 8
  %36 = call i32 @call_dissector(ptr noundef %32, ptr noundef %33, ptr noundef %34, ptr noundef %35)
  store i32 %36, ptr %5, align 4
  store i32 1, ptr %12, align 4
  br label %38

37:                                               ; preds = %27
  store i32 0, ptr %12, align 4
  br label %38

38:                                               ; preds = %37, %31
  call void @llvm.lifetime.end.p0(i64 1, ptr %11) #7
  %39 = load i32, ptr %12, align 4
  switch i32 %39, label %96 [
    i32 0, label %40
  ]

40:                                               ; preds = %38
  call void @llvm.lifetime.start.p0(i64 8, ptr %13) #7
  %41 = load ptr, ptr %7, align 8
  %42 = getelementptr inbounds nuw %struct._packet_info, ptr %41, i32 0, i32 51
  %43 = load ptr, ptr %42, align 8
  %44 = load ptr, ptr %6, align 8
  %45 = call ptr @wscbor_chunk_read(ptr noundef %43, ptr noundef %44, ptr noundef %10)
  store ptr %45, ptr %13, align 8
  %46 = load ptr, ptr %13, align 8
  %47 = getelementptr inbounds nuw %struct.wscbor_chunk_t, ptr %46, i32 0, i32 6
  %48 = load i32, ptr %47, align 8
  %49 = icmp eq i32 %48, 4
  br i1 %49, label %50, label %94

50:                                               ; preds = %40
  call void @llvm.lifetime.start.p0(i64 8, ptr %14) #7
  %51 = load ptr, ptr %7, align 8
  %52 = getelementptr inbounds nuw %struct._packet_info, ptr %51, i32 0, i32 51
  %53 = load ptr, ptr %52, align 8
  %54 = load ptr, ptr %6, align 8
  %55 = call ptr @wscbor_chunk_read(ptr noundef %53, ptr noundef %54, ptr noundef %10)
  store ptr %55, ptr %14, align 8
  %56 = load ptr, ptr %14, align 8
  %57 = getelementptr inbounds nuw %struct.wscbor_chunk_t, ptr %56, i32 0, i32 6
  %58 = load i32, ptr %57, align 8
  %59 = icmp eq i32 %58, 4
  br i1 %59, label %60, label %90

60:                                               ; preds = %50
  call void @llvm.lifetime.start.p0(i64 8, ptr %15) #7
  %61 = load ptr, ptr %7, align 8
  %62 = getelementptr inbounds nuw %struct._packet_info, ptr %61, i32 0, i32 51
  %63 = load ptr, ptr %62, align 8
  %64 = load ptr, ptr %6, align 8
  %65 = call ptr @wscbor_chunk_read(ptr noundef %63, ptr noundef %64, ptr noundef %10)
  store ptr %65, ptr %15, align 8
  %66 = load ptr, ptr %15, align 8
  %67 = getelementptr inbounds nuw %struct.wscbor_chunk_t, ptr %66, i32 0, i32 6
  %68 = load i32, ptr %67, align 8
  %69 = icmp eq i32 %68, 0
  br i1 %69, label %70, label %86

70:                                               ; preds = %60
  call void @llvm.lifetime.start.p0(i64 8, ptr %16) #7
  %71 = load ptr, ptr %15, align 8
  %72 = getelementptr inbounds nuw %struct.wscbor_chunk_t, ptr %71, i32 0, i32 8
  %73 = load i64, ptr %72, align 8
  store i64 %73, ptr %16, align 8
  %74 = load i64, ptr %16, align 8
  %75 = icmp eq i64 %74, 7
  br i1 %75, label %76, label %82

76:                                               ; preds = %70
  %77 = load ptr, ptr @bpv7_handle, align 8
  %78 = load ptr, ptr %6, align 8
  %79 = load ptr, ptr %7, align 8
  %80 = load ptr, ptr %8, align 8
  %81 = call i32 @call_dissector(ptr noundef %77, ptr noundef %78, ptr noundef %79, ptr noundef %80)
  store i32 %81, ptr %5, align 4
  store i32 1, ptr %12, align 4
  br label %83

82:                                               ; preds = %70
  store i32 0, ptr %12, align 4
  br label %83

83:                                               ; preds = %82, %76
  call void @llvm.lifetime.end.p0(i64 8, ptr %16) #7
  %84 = load i32, ptr %12, align 4
  switch i32 %84, label %87 [
    i32 0, label %85
  ]

85:                                               ; preds = %83
  br label %86

86:                                               ; preds = %85, %60
  store i32 0, ptr %12, align 4
  br label %87

87:                                               ; preds = %86, %83
  call void @llvm.lifetime.end.p0(i64 8, ptr %15) #7
  %88 = load i32, ptr %12, align 4
  switch i32 %88, label %91 [
    i32 0, label %89
  ]

89:                                               ; preds = %87
  br label %90

90:                                               ; preds = %89, %50
  store i32 0, ptr %12, align 4
  br label %91

91:                                               ; preds = %90, %87
  call void @llvm.lifetime.end.p0(i64 8, ptr %14) #7
  %92 = load i32, ptr %12, align 4
  switch i32 %92, label %95 [
    i32 0, label %93
  ]

93:                                               ; preds = %91
  br label %94

94:                                               ; preds = %93, %40
  store i32 0, ptr %5, align 4
  store i32 1, ptr %12, align 4
  br label %95

95:                                               ; preds = %94, %91
  call void @llvm.lifetime.end.p0(i64 8, ptr %13) #7
  br label %96

96:                                               ; preds = %95, %38
  call void @llvm.lifetime.end.p0(i64 4, ptr %10) #7
  %97 = load i32, ptr %5, align 4
  ret i32 %97
}