; Function Attrs: null_pointer_is_valid sspstrong uwtable
define internal i32 @dissect_bundle(ptr noundef %0, ptr noundef %1, ptr noundef %2, ptr readnone captures(none) %3) #0 {
  %5 = alloca i32, align 4
  call void @llvm.lifetime.start.p0(i64 4, ptr nonnull %5) #6
  store i32 0, ptr %5, align 4
  %6 = tail call zeroext i8 @tvb_get_uint8(ptr noundef %0, i32 noundef 0)
  %.off = add i8 %6, -4
  %switch = icmp ult i8 %.off, 3
  br i1 %switch, label %.thread, label %9

.thread:                                          ; preds = %4
  %7 = load ptr, ptr @bpv6_handle, align 8
  %8 = tail call i32 @call_dissector(ptr noundef %7, ptr noundef %0, ptr noundef %1, ptr noundef %2)
  br label %.thread44

9:                                                ; preds = %4
  %10 = getelementptr inbounds nuw i8, ptr %1, i64 408
  %11 = load ptr, ptr %10, align 8
  %12 = call ptr @wscbor_chunk_read(ptr noundef %11, ptr noundef %0, ptr noundef nonnull %5)
  %13 = getelementptr inbounds nuw i8, ptr %12, i64 40
  %14 = load i32, ptr %13, align 8
  %15 = icmp eq i32 %14, 4
  br i1 %15, label %16, label %.thread44

16:                                               ; preds = %9
  %17 = load ptr, ptr %10, align 8
  %18 = call ptr @wscbor_chunk_read(ptr noundef %17, ptr noundef %0, ptr noundef nonnull %5)
  %19 = getelementptr inbounds nuw i8, ptr %18, i64 40
  %20 = load i32, ptr %19, align 8
  %21 = icmp eq i32 %20, 4
  br i1 %21, label %22, label %.thread44

22:                                               ; preds = %16
  %23 = load ptr, ptr %10, align 8
  %24 = call ptr @wscbor_chunk_read(ptr noundef %23, ptr noundef %0, ptr noundef nonnull %5)
  %25 = getelementptr inbounds nuw i8, ptr %24, i64 40
  %26 = load i32, ptr %25, align 8
  %27 = icmp eq i32 %26, 0
  br i1 %27, label %28, label %.thread44

28:                                               ; preds = %22
  %29 = getelementptr inbounds nuw i8, ptr %24, i64 48
  %30 = load i64, ptr %29, align 8
  %.not = icmp eq i64 %30, 7
  br i1 %.not, label %31, label %.thread44

31:                                               ; preds = %28
  %32 = load ptr, ptr @bpv7_handle, align 8
  %33 = call i32 @call_dissector(ptr noundef %32, ptr noundef %0, ptr noundef %1, ptr noundef %2)
  br label %.thread44

.thread44:                                        ; preds = %22, %16, %28, %9, %31, %.thread
  %.1 = phi i32 [ %33, %31 ], [ %8, %.thread ], [ 0, %9 ], [ 0, %28 ], [ 0, %16 ], [ 0, %22 ]
  call void @llvm.lifetime.end.p0(i64 4, ptr nonnull %5) #6
  ret i32 %.1
}